target datalayout = "e-m:e-p270:32:32-p271:32:32-p272:64:64-i64:64-i128:128-f80:128-n8:16:32:64-S128"
target triple = "x86_64-pc-linux-gnu"

%struct.varattrib_1b = type { i8, [0 x i8] }
%struct.anon = type { i32, [0 x i8] }
%struct.varattrib_1b_e = type { i8, i8, [0 x i8] }
%struct.JsonbValue = type { i32, %union.anon }
%union.anon = type { %struct.anon.2 }
%struct.anon.2 = type { i32, ptr, i8 }
%struct.FunctionCallInfoBaseData = type { ptr, ptr, ptr, i32, i8, i16, [0 x %struct.NullableDatum] }
%struct.NullableDatum = type { i64, i8 }
%struct.Jsonb = type { i32, %struct.JsonbContainer }
%struct.JsonbContainer = type { i32, [0 x i32] }

; Function Attrs: inlinehint nounwind uwtable
define internal i64 @PointerGetDatum(ptr noundef %0) #3 {
  %2 = alloca ptr, align 8
  store ptr %0, ptr %2, align 8
  %3 = load ptr, ptr %2, align 8
  %4 = ptrtoint ptr %3 to i64
  ret i64 %4
}

; Function Attrs: inlinehint nounwind uwtable
define internal ptr @DatumGetPointer(i64 noundef %0) #3 {
  %2 = alloca i64, align 8
  store i64 %0, ptr %2, align 8
  %3 = load i64, ptr %2, align 8
  %4 = inttoptr i64 %3 to ptr
  ret ptr %4
}

; Function Attrs: inlinehint nounwind uwtable
define internal ptr @DatumGetJsonbP(i64 noundef %0) #3 {
  %2 = alloca i64, align 8
  store i64 %0, ptr %2, align 8
  %3 = load i64, ptr %2, align 8
  %4 = call ptr @DatumGetPointer(i64 noundef %3)
  %5 = call ptr @pg_detoast_datum(ptr noundef %4)
  ret ptr %5
}

; Function Attrs: nounwind uwtable
define dso_local i64 @jsonb_object_field(ptr noundef %0) #0 {
  %2 = alloca i64, align 8
  %3 = alloca ptr, align 8
  %4 = alloca ptr, align 8
  %5 = alloca ptr, align 8
  %6 = alloca ptr, align 8
  %7 = alloca %struct.JsonbValue, align 8
  %8 = alloca i32, align 4
  store ptr %0, ptr %3, align 8
  call void @llvm.lifetime.start.p0(i64 8, ptr %4) #10
  %9 = load ptr, ptr %3, align 8
  %10 = getelementptr inbounds nuw %struct.FunctionCallInfoBaseData, ptr %9, i32 0, i32 6
  %11 = getelementptr inbounds [0 x %struct.NullableDatum], ptr %10, i64 0, i64 0
  %12 = getelementptr inbounds nuw %struct.NullableDatum, ptr %11, i32 0, i32 0
  %13 = load i64, ptr %12, align 8
  %14 = call ptr @DatumGetJsonbP(i64 noundef %13)
  store ptr %14, ptr %4, align 8
  call void @llvm.lifetime.start.p0(i64 8, ptr %5) #10
  %15 = load ptr, ptr %3, align 8
  %16 = getelementptr inbounds nuw %struct.FunctionCallInfoBaseData, ptr %15, i32 0, i32 6
  %17 = getelementptr inbounds [0 x %struct.NullableDatum], ptr %16, i64 0, i64 1
  %18 = getelementptr inbounds nuw %struct.NullableDatum, ptr %17, i32 0, i32 0
  %19 = load i64, ptr %18, align 8
  %20 = call ptr @DatumGetPointer(i64 noundef %19)
  %21 = call ptr @pg_detoast_datum_packed(ptr noundef %20)
  store ptr %21, ptr %5, align 8
  call void @llvm.lifetime.start.p0(i64 8, ptr %6) #10
  call void @llvm.lifetime.start.p0(i64 32, ptr %7) #10
  %22 = load ptr, ptr %4, align 8
  %23 = getelementptr inbounds nuw %struct.anon, ptr %22, i32 0, i32 1
  %24 = getelementptr inbounds [0 x i8], ptr %23, i64 0, i64 0
  %25 = load i32, ptr %24, align 4
  %26 = and i32 %25, 536870912
  %27 = icmp ne i32 %26, 0
  br i1 %27, label %34, label %28

28:                                               ; preds = %1
  br label %29

29:                                               ; preds = %28
  %30 = load ptr, ptr %3, align 8
  %31 = getelementptr inbounds nuw %struct.FunctionCallInfoBaseData, ptr %30, i32 0, i32 4
  store i8 1, ptr %31, align 4
  store i64 0, ptr %2, align 8
  store i32 1, ptr %8, align 4
  br label %128

32:                                               ; No predecessors!
  br label %33

33:                                               ; preds = %32
  br label %34

34:                                               ; preds = %33, %1
  %35 = load ptr, ptr %4, align 8
  %36 = getelementptr inbounds nuw %struct.Jsonb, ptr %35, i32 0, i32 1
  %37 = load ptr, ptr %5, align 8
  %38 = getelementptr inbounds nuw %struct.varattrib_1b, ptr %37, i32 0, i32 0
  %39 = load i8, ptr %38, align 1
  %40 = zext i8 %39 to i32
  %41 = and i32 %40, 1
  %42 = icmp eq i32 %41, 1
  br i1 %42, label %43, label %47

43:                                               ; preds = %34
  %44 = load ptr, ptr %5, align 8
  %45 = getelementptr inbounds nuw %struct.varattrib_1b, ptr %44, i32 0, i32 1
  %46 = getelementptr inbounds [0 x i8], ptr %45, i64 0, i64 0
  br label %51

47:                                               ; preds = %34
  %48 = load ptr, ptr %5, align 8
  %49 = getelementptr inbounds nuw %struct.anon, ptr %48, i32 0, i32 1
  %50 = getelementptr inbounds [0 x i8], ptr %49, i64 0, i64 0
  br label %51

51:                                               ; preds = %47, %43
  %52 = phi ptr [ %46, %43 ], [ %50, %47 ]
  %53 = load ptr, ptr %5, align 8
  %54 = getelementptr inbounds nuw %struct.varattrib_1b, ptr %53, i32 0, i32 0
  %55 = load i8, ptr %54, align 1
  %56 = zext i8 %55 to i32
  %57 = icmp eq i32 %56, 1
  br i1 %57, label %58, label %86

58:                                               ; preds = %51
  %59 = load ptr, ptr %5, align 8
  %60 = getelementptr inbounds nuw %struct.varattrib_1b_e, ptr %59, i32 0, i32 1
  %61 = load i8, ptr %60, align 1
  %62 = zext i8 %61 to i32
  %63 = icmp eq i32 %62, 1
  br i1 %63, label %64, label %65

64:                                               ; preds = %58
  br label %82

65:                                               ; preds = %58
  %66 = load ptr, ptr %5, align 8
  %67 = getelementptr inbounds nuw %struct.varattrib_1b_e, ptr %66, i32 0, i32 1
  %68 = load i8, ptr %67, align 1
  %69 = zext i8 %68 to i32
  %70 = and i32 %69, -2
  %71 = icmp eq i32 %70, 2
  br i1 %71, label %72, label %73

72:                                               ; preds = %65
  br label %80

73:                                               ; preds = %65
  %74 = load ptr, ptr %5, align 8
  %75 = getelementptr inbounds nuw %struct.varattrib_1b_e, ptr %74, i32 0, i32 1
  %76 = load i8, ptr %75, align 1
  %77 = zext i8 %76 to i32
  %78 = icmp eq i32 %77, 18
  %79 = select i1 %78, i64 16, i64 0
  br label %80

80:                                               ; preds = %73, %72
  %81 = phi i64 [ 8, %72 ], [ %79, %73 ]
  br label %82

82:                                               ; preds = %80, %64
  %83 = phi i64 [ 8, %64 ], [ %81, %80 ]
  %84 = add i64 2, %83
  %85 = sub i64 %84, 2
  br label %112

86:                                               ; preds = %51
  %87 = load ptr, ptr %5, align 8
  %88 = getelementptr inbounds nuw %struct.varattrib_1b, ptr %87, i32 0, i32 0
  %89 = load i8, ptr %88, align 1
  %90 = zext i8 %89 to i32
  %91 = and i32 %90, 1
  %92 = icmp eq i32 %91, 1
  br i1 %92, label %93, label %102

93:                                               ; preds = %86
  %94 = load ptr, ptr %5, align 8
  %95 = getelementptr inbounds nuw %struct.varattrib_1b, ptr %94, i32 0, i32 0
  %96 = load i8, ptr %95, align 1
  %97 = zext i8 %96 to i32
  %98 = ashr i32 %97, 1
  %99 = and i32 %98, 127
  %100 = sext i32 %99 to i64
  %101 = sub i64 %100, 1
  br label %110

102:                                              ; preds = %86
  %103 = load ptr, ptr %5, align 8
  %104 = getelementptr inbounds nuw %struct.anon, ptr %103, i32 0, i32 0
  %105 = load i32, ptr %104, align 4
  %106 = lshr i32 %105, 2
  %107 = and i32 %106, 1073741823
  %108 = sub i32 %107, 4
  %109 = zext i32 %108 to i64
  br label %110

110:                                              ; preds = %102, %93
  %111 = phi i64 [ %101, %93 ], [ %109, %102 ]
  br label %112

112:                                              ; preds = %110, %82
  %113 = phi i64 [ %85, %82 ], [ %111, %110 ]
  %114 = trunc i64 %113 to i32
  %115 = call ptr @getKeyJsonValueFromContainer(ptr noundef %36, ptr noundef %52, i32 noundef %114, ptr noundef %7)
  store ptr %115, ptr %6, align 8
  %116 = load ptr, ptr %6, align 8
  %117 = icmp ne ptr %116, null
  br i1 %117, label %118, label %122

118:                                              ; preds = %112
  %119 = load ptr, ptr %6, align 8
  %120 = call ptr @JsonbValueToJsonb(ptr noundef %119)
  %121 = call i64 @PointerGetDatum(ptr noundef %120)
  store i64 %121, ptr %2, align 8
  store i32 1, ptr %8, align 4
  br label %128

122:                                              ; preds = %112
  br label %123

123:                                              ; preds = %122
  %124 = load ptr, ptr %3, align 8
  %125 = getelementptr inbounds nuw %struct.FunctionCallInfoBaseData, ptr %124, i32 0, i32 4
  store i8 1, ptr %125, align 4
  store i64 0, ptr %2, align 8
  store i32 1, ptr %8, align 4
  br label %128

126:                                              ; No predecessors!
  br label %127

127:                                              ; preds = %126
  store i32 0, ptr %8, align 4
  br label %128

128:                                              ; preds = %127, %123, %118, %29
  call void @llvm.lifetime.end.p0(i64 32, ptr %7) #10
  call void @llvm.lifetime.end.p0(i64 8, ptr %6) #10
  call void @llvm.lifetime.end.p0(i64 8, ptr %5) #10
  call void @llvm.lifetime.end.p0(i64 8, ptr %4) #10
  %129 = load i32, ptr %8, align 4
  switch i32 %129, label %132 [
    i32 0, label %130
    i32 1, label %130
  ]

130:                                              ; preds = %128, %128
  %131 = load i64, ptr %2, align 8
  ret i64 %131

132:                                              ; preds = %128
  unreachable
}