; Function Attrs: nounwind uwtable
define dso_local i64 @jsonb_object_field(ptr noundef captures(none) %0) local_unnamed_addr #0 {
  %2 = alloca %struct.JsonbValue, align 8
  %3 = getelementptr inbounds nuw i8, ptr %0, i64 32
  %4 = load i64, ptr %3, align 8
  %5 = inttoptr i64 %4 to ptr
  %6 = tail call ptr @pg_detoast_datum(ptr noundef %5) #15
  %7 = getelementptr inbounds nuw i8, ptr %0, i64 48
  %8 = load i64, ptr %7, align 8
  %9 = inttoptr i64 %8 to ptr
  %10 = tail call ptr @pg_detoast_datum_packed(ptr noundef %9) #15
  call void @llvm.lifetime.start.p0(i64 32, ptr nonnull %2) #15
  %11 = getelementptr inbounds nuw i8, ptr %6, i64 4
  %12 = load i32, ptr %11, align 4
  %13 = and i32 %12, 536870912
  %.not = icmp eq i32 %13, 0
  br i1 %.not, label %14, label %16

14:                                               ; preds = %1
  %15 = getelementptr inbounds nuw i8, ptr %0, i64 28
  store i8 1, ptr %15, align 4
  br label %48

16:                                               ; preds = %1
  %17 = load i8, ptr %10, align 1
  %18 = zext i8 %17 to i32
  %19 = and i32 %18, 1
  %.not21 = icmp eq i32 %19, 0
  %20 = getelementptr inbounds nuw i8, ptr %10, i64 1
  %21 = getelementptr inbounds nuw i8, ptr %10, i64 4
  %22 = select i1 %.not21, ptr %21, ptr %20
  %23 = icmp eq i8 %17, 1
  br i1 %23, label %24, label %32

24:                                               ; preds = %16
  %25 = load i8, ptr %20, align 1
  %26 = icmp eq i8 %25, 1
  %27 = and i8 %25, -2
  %28 = icmp eq i8 %27, 2
  %or.cond = or i1 %26, %28
  %29 = icmp eq i8 %25, 18
  %30 = select i1 %29, i32 16, i32 0
  %31 = select i1 %or.cond, i32 8, i32 %30
  br label %40

32:                                               ; preds = %16
  br i1 %.not21, label %36, label %33

33:                                               ; preds = %32
  %34 = lshr i32 %18, 1
  %35 = add nsw i32 %34, -1
  br label %40

36:                                               ; preds = %32
  %37 = load i32, ptr %10, align 4
  %38 = lshr i32 %37, 2
  %39 = add nsw i32 %38, -4
  br label %40

40:                                               ; preds = %33, %36, %24
  %41 = phi i32 [ %31, %24 ], [ %35, %33 ], [ %39, %36 ]
  %42 = call ptr @getKeyJsonValueFromContainer(ptr noundef nonnull %11, ptr noundef nonnull %22, i32 noundef %41, ptr noundef nonnull %2) #15
  %.not22 = icmp eq ptr %42, null
  br i1 %.not22, label %46, label %43

43:                                               ; preds = %40
  %44 = call ptr @JsonbValueToJsonb(ptr noundef nonnull %42) #15
  %45 = ptrtoint ptr %44 to i64
  br label %48

46:                                               ; preds = %40
  %47 = getelementptr inbounds nuw i8, ptr %0, i64 28
  store i8 1, ptr %47, align 4
  br label %48

48:                                               ; preds = %46, %43, %14
  %.0 = phi i64 [ %45, %43 ], [ 0, %46 ], [ 0, %14 ]
  call void @llvm.lifetime.end.p0(i64 32, ptr nonnull %2) #15
  ret i64 %.0
}